target datalayout = "e-m:e-p270:32:32-p271:32:32-p272:64:64-i64:64-i128:128-f80:128-n8:16:32:64-S128"
target triple = "x86_64-pc-linux-gnu"

%"class.cvc5::internal::preprocessing::util::ITEUtilities" = type { %"class.cvc5::internal::EnvObj", %"class.std::unique_ptr", ptr, ptr, ptr }
%"class.cvc5::internal::EnvObj" = type { ptr, ptr }
%"class.std::unique_ptr" = type { %"struct.std::__uniq_ptr_data" }
%"struct.std::__uniq_ptr_data" = type { %"class.std::__uniq_ptr_impl" }
%"class.std::__uniq_ptr_impl" = type { %"class.std::tuple" }
%"class.std::tuple" = type { %"struct.std::_Tuple_impl" }
%"struct.std::_Tuple_impl" = type { %"struct.std::_Head_base.1" }
%"struct.std::_Head_base.1" = type { ptr }

; Function Attrs: mustprogress uwtable
define hidden noundef zeroext i1 @_ZNK4cvc58internal13preprocessing4util12ITEUtilities29simpIteDidALotOfWorkHeuristicEv(ptr noundef nonnull align 8 dereferenceable(48) %0) #4 align 2 {
  %2 = alloca i1, align 1
  %3 = alloca ptr, align 8
  store ptr %0, ptr %3, align 8, !tbaa !3
  %4 = load ptr, ptr %3, align 8
  %5 = getelementptr inbounds nuw %"class.cvc5::internal::preprocessing::util::ITEUtilities", ptr %4, i32 0, i32 3
  %6 = load ptr, ptr %5, align 8, !tbaa !25
  %7 = icmp eq ptr %6, null
  br i1 %7, label %8, label %9

8:                                                ; preds = %1
  store i1 false, ptr %2, align 1
  br label %13

9:                                                ; preds = %1
  %10 = getelementptr inbounds nuw %"class.cvc5::internal::preprocessing::util::ITEUtilities", ptr %4, i32 0, i32 3
  %11 = load ptr, ptr %10, align 8, !tbaa !25
  %12 = call noundef zeroext i1 @_ZNK4cvc58internal13preprocessing4util13ITESimplifier23doneALotOfWorkHeuristicEv(ptr noundef nonnull align 8 dereferenceable(712) %11)
  store i1 %12, ptr %2, align 1
  br label %13

13:                                               ; preds = %9, %8
  %14 = load i1, ptr %2, align 1
  ret i1 %14
}