; Function Attrs: mustprogress uwtable
define hidden noundef zeroext i1 @_ZNK4cvc58internal13preprocessing4util12ITEUtilities29simpIteDidALotOfWorkHeuristicEv(ptr noundef nonnull readonly align 8 captures(none) dereferenceable(48) %0) local_unnamed_addr #3 align 2 {
  %2 = getelementptr inbounds nuw i8, ptr %0, i64 32
  %3 = load ptr, ptr %2, align 8, !tbaa !20
  %4 = icmp eq ptr %3, null
  br i1 %4, label %7, label %5

5:                                                ; preds = %1
  %6 = tail call noundef zeroext i1 @_ZNK4cvc58internal13preprocessing4util13ITESimplifier23doneALotOfWorkHeuristicEv(ptr noundef nonnull align 8 dereferenceable(712) %3)
  br label %7

7:                                                ; preds = %1, %5
  %.0 = phi i1 [ %6, %5 ], [ false, %1 ]
  ret i1 %.0
}